target datalayout = "e-m:e-p270:32:32-p271:32:32-p272:64:64-i64:64-i128:128-f80:128-n8:16:32:64-S128"
target triple = "x86_64-pc-linux-gnu"

; Function Attrs: nounwind uwtable
define dso_local zeroext i8 @geohashEstimateStepsByRadius(double noundef %0, double noundef %1) #0 {
  %3 = alloca i8, align 1
  %4 = alloca double, align 8
  %5 = alloca double, align 8
  %6 = alloca i32, align 4
  store double %0, ptr %4, align 8, !tbaa !5
  store double %1, ptr %5, align 8, !tbaa !5
  %7 = load double, ptr %4, align 8, !tbaa !5
  %8 = fcmp oeq double %7, 0.000000e+00
  br i1 %8, label %9, label %10

9:                                                ; preds = %2
  store i8 26, ptr %3, align 1
  br label %50

10:                                               ; preds = %2
  call void @llvm.lifetime.start.p0(i64 4, ptr %6) #7
  store i32 1, ptr %6, align 4, !tbaa !9
  br label %11

11:                                               ; preds = %14, %10
  %12 = load double, ptr %4, align 8, !tbaa !5
  %13 = fcmp olt double %12, 0x41731C05E5EB851F
  br i1 %13, label %14, label %19

14:                                               ; preds = %11
  %15 = load double, ptr %4, align 8, !tbaa !5
  %16 = fmul double %15, 2.000000e+00
  store double %16, ptr %4, align 8, !tbaa !5
  %17 = load i32, ptr %6, align 4, !tbaa !9
  %18 = add nsw i32 %17, 1
  store i32 %18, ptr %6, align 4, !tbaa !9
  br label %11, !llvm.loop !11

19:                                               ; preds = %11
  %20 = load i32, ptr %6, align 4, !tbaa !9
  %21 = sub nsw i32 %20, 2
  store i32 %21, ptr %6, align 4, !tbaa !9
  %22 = load double, ptr %5, align 8, !tbaa !5
  %23 = fcmp ogt double %22, 6.600000e+01
  br i1 %23, label %27, label %24

24:                                               ; preds = %19
  %25 = load double, ptr %5, align 8, !tbaa !5
  %26 = fcmp olt double %25, -6.600000e+01
  br i1 %26, label %27, label %39

27:                                               ; preds = %24, %19
  %28 = load i32, ptr %6, align 4, !tbaa !9
  %29 = add nsw i32 %28, -1
  store i32 %29, ptr %6, align 4, !tbaa !9
  %30 = load double, ptr %5, align 8, !tbaa !5
  %31 = fcmp ogt double %30, 8.000000e+01
  br i1 %31, label %35, label %32

32:                                               ; preds = %27
  %33 = load double, ptr %5, align 8, !tbaa !5
  %34 = fcmp olt double %33, -8.000000e+01
  br i1 %34, label %35, label %38

35:                                               ; preds = %32, %27
  %36 = load i32, ptr %6, align 4, !tbaa !9
  %37 = add nsw i32 %36, -1
  store i32 %37, ptr %6, align 4, !tbaa !9
  br label %38

38:                                               ; preds = %35, %32
  br label %39

39:                                               ; preds = %38, %24
  %40 = load i32, ptr %6, align 4, !tbaa !9
  %41 = icmp slt i32 %40, 1
  br i1 %41, label %42, label %43

42:                                               ; preds = %39
  store i32 1, ptr %6, align 4, !tbaa !9
  br label %43

43:                                               ; preds = %42, %39
  %44 = load i32, ptr %6, align 4, !tbaa !9
  %45 = icmp sgt i32 %44, 26
  br i1 %45, label %46, label %47

46:                                               ; preds = %43
  store i32 26, ptr %6, align 4, !tbaa !9
  br label %47

47:                                               ; preds = %46, %43
  %48 = load i32, ptr %6, align 4, !tbaa !9
  %49 = trunc i32 %48 to i8
  store i8 %49, ptr %3, align 1
  call void @llvm.lifetime.end.p0(i64 4, ptr %6) #7
  br label %50

50:                                               ; preds = %47, %9
  %51 = load i8, ptr %3, align 1
  ret i8 %51
}