; Function Attrs: nofree norecurse nosync nounwind memory(none) uwtable
define dso_local zeroext range(i8 1, 27) i8 @geohashEstimateStepsByRadius(double noundef %0, double noundef %1) local_unnamed_addr #0 {
  %3 = fcmp oeq double %0, 0.000000e+00
  br i1 %3, label %16, label %.preheader

.preheader:                                       ; preds = %2
  %4 = fcmp olt double %0, 0x41731C05E5EB851F
  br i1 %4, label %.lr.ph, label %._crit_edge

.lr.ph:                                           ; preds = %.preheader, %.lr.ph
  %.022 = phi i32 [ %6, %.lr.ph ], [ 1, %.preheader ]
  %.01921 = phi double [ %5, %.lr.ph ], [ %0, %.preheader ]
  %5 = fmul double %.01921, 2.000000e+00
  %6 = add nuw nsw i32 %.022, 1
  %7 = fcmp olt double %5, 0x41731C05E5EB851F
  br i1 %7, label %.lr.ph, label %._crit_edge, !llvm.loop !5

._crit_edge:                                      ; preds = %.lr.ph, %.preheader
  %.0.lcssa = phi i32 [ 1, %.preheader ], [ %6, %.lr.ph ]
  %8 = add nsw i32 %.0.lcssa, -2
  %9 = tail call double @llvm.fabs.f64(double %1)
  %or.cond = fcmp ogt double %9, 6.600000e+01
  br i1 %or.cond, label %10, label %14

10:                                               ; preds = %._crit_edge
  %11 = add nsw i32 %.0.lcssa, -3
  %or.cond3 = fcmp ogt double %9, 8.000000e+01
  br i1 %or.cond3, label %12, label %14

12:                                               ; preds = %10
  %13 = add nsw i32 %.0.lcssa, -4
  br label %14

14:                                               ; preds = %12, %10, %._crit_edge
  %.1 = phi i32 [ %13, %12 ], [ %11, %10 ], [ %8, %._crit_edge ]
  %spec.store.select = tail call i32 @llvm.smax.i32(i32 %.1, i32 1)
  %spec.store.select4 = tail call i32 @llvm.umin.i32(i32 %spec.store.select, i32 26)
  %15 = trunc nuw nsw i32 %spec.store.select4 to i8
  br label %16

16:                                               ; preds = %2, %14
  %.018 = phi i8 [ %15, %14 ], [ 26, %2 ]
  ret i8 %.018
}